target datalayout = "e-m:e-p270:32:32-p271:32:32-p272:64:64-i64:64-i128:128-f80:128-n8:16:32:64-S128"
target triple = "x86_64-pc-linux-gnu"

; Function Attrs: alwaysinline nounwind uwtable
define internal i32 @_mm_cvtsi128_si32(<2 x i64> noundef %0) #4 {
  %2 = alloca <2 x i64>, align 16
  %3 = alloca <4 x i32>, align 16
  store <2 x i64> %0, ptr %2, align 16, !tbaa !11
  call void @llvm.lifetime.start.p0(i64 16, ptr %3) #9
  %4 = load <2 x i64>, ptr %2, align 16, !tbaa !11
  %5 = bitcast <2 x i64> %4 to <4 x i32>
  store <4 x i32> %5, ptr %3, align 16, !tbaa !11
  %6 = load <4 x i32>, ptr %3, align 16, !tbaa !11
  %7 = extractelement <4 x i32> %6, i32 0
  call void @llvm.lifetime.end.p0(i64 16, ptr %3) #9
  ret i32 %7
}

; Function Attrs: alwaysinline nounwind uwtable
define internal <2 x i64> @_mm_packus_epi16(<2 x i64> noundef %0, <2 x i64> noundef %1) #4 {
  %3 = alloca <2 x i64>, align 16
  %4 = alloca <2 x i64>, align 16
  store <2 x i64> %0, ptr %3, align 16, !tbaa !11
  store <2 x i64> %1, ptr %4, align 16, !tbaa !11
  %5 = load <2 x i64>, ptr %3, align 16, !tbaa !11
  %6 = bitcast <2 x i64> %5 to <8 x i16>
  %7 = load <2 x i64>, ptr %4, align 16, !tbaa !11
  %8 = bitcast <2 x i64> %7 to <8 x i16>
  %9 = call <16 x i8> @llvm.x86.sse2.packuswb.128(<8 x i16> %6, <8 x i16> %8)
  %10 = bitcast <16 x i8> %9 to <2 x i64>
  ret <2 x i64> %10
}

; Function Attrs: alwaysinline nounwind uwtable
define internal <2 x i64> @_mm_srli_epi16(<2 x i64> noundef %0, i32 noundef %1) #4 {
  %3 = alloca <2 x i64>, align 16
  %4 = alloca i32, align 4
  store <2 x i64> %0, ptr %3, align 16, !tbaa !11
  store i32 %1, ptr %4, align 4, !tbaa !9
  %5 = load <2 x i64>, ptr %3, align 16, !tbaa !11
  %6 = bitcast <2 x i64> %5 to <8 x i16>
  %7 = load i32, ptr %4, align 4, !tbaa !9
  %8 = call <8 x i16> @llvm.x86.sse2.psrli.w(<8 x i16> %6, i32 %7)
  %9 = bitcast <8 x i16> %8 to <2 x i64>
  ret <2 x i64> %9
}

; Function Attrs: alwaysinline nounwind uwtable
define internal <2 x i64> @_mm_add_epi16(<2 x i64> noundef %0, <2 x i64> noundef %1) #4 {
  %3 = alloca <2 x i64>, align 16
  %4 = alloca <2 x i64>, align 16
  store <2 x i64> %0, ptr %3, align 16, !tbaa !11
  store <2 x i64> %1, ptr %4, align 16, !tbaa !11
  %5 = load <2 x i64>, ptr %3, align 16, !tbaa !11
  %6 = bitcast <2 x i64> %5 to <8 x i16>
  %7 = load <2 x i64>, ptr %4, align 16, !tbaa !11
  %8 = bitcast <2 x i64> %7 to <8 x i16>
  %9 = add <8 x i16> %6, %8
  %10 = bitcast <8 x i16> %9 to <2 x i64>
  ret <2 x i64> %10
}

; Function Attrs: alwaysinline nounwind uwtable
define internal <2 x i64> @_mm_unpacklo_epi8(<2 x i64> noundef %0, <2 x i64> noundef %1) #4 {
  %3 = alloca <2 x i64>, align 16
  %4 = alloca <2 x i64>, align 16
  store <2 x i64> %0, ptr %3, align 16, !tbaa !11
  store <2 x i64> %1, ptr %4, align 16, !tbaa !11
  %5 = load <2 x i64>, ptr %3, align 16, !tbaa !11
  %6 = bitcast <2 x i64> %5 to <16 x i8>
  %7 = load <2 x i64>, ptr %4, align 16, !tbaa !11
  %8 = bitcast <2 x i64> %7 to <16 x i8>
  %9 = shufflevector <16 x i8> %6, <16 x i8> %8, <16 x i32> <i32 0, i32 16, i32 1, i32 17, i32 2, i32 18, i32 3, i32 19, i32 4, i32 20, i32 5, i32 21, i32 6, i32 22, i32 7, i32 23>
  %10 = bitcast <16 x i8> %9 to <2 x i64>
  ret <2 x i64> %10
}

; Function Attrs: alwaysinline nounwind uwtable
define internal <2 x i64> @_mm_cvtsi32_si128(i32 noundef %0) #4 {
  %2 = alloca i32, align 4
  %3 = alloca <4 x i32>, align 16
  store i32 %0, ptr %2, align 4, !tbaa !9
  %4 = load i32, ptr %2, align 4, !tbaa !9
  %5 = insertelement <4 x i32> poison, i32 %4, i32 0
  %6 = insertelement <4 x i32> %5, i32 0, i32 1
  %7 = insertelement <4 x i32> %6, i32 0, i32 2
  %8 = insertelement <4 x i32> %7, i32 0, i32 3
  store <4 x i32> %8, ptr %3, align 16, !tbaa !11
  %9 = load <4 x i32>, ptr %3, align 16, !tbaa !11
  %10 = bitcast <4 x i32> %9 to <2 x i64>
  ret <2 x i64> %10
}

; Function Attrs: inlinehint nounwind uwtable
define internal <2 x i64> @Average2_uint32_16_SSE2(i32 noundef %0, i32 noundef %1) #3 {
  %3 = alloca i32, align 4
  %4 = alloca i32, align 4
  %5 = alloca <2 x i64>, align 16
  %6 = alloca <2 x i64>, align 16
  %7 = alloca <2 x i64>, align 16
  %8 = alloca <2 x i64>, align 16
  store i32 %0, ptr %3, align 4, !tbaa !9
  store i32 %1, ptr %4, align 4, !tbaa !9
  call void @llvm.lifetime.start.p0(i64 16, ptr %5) #9
  %9 = call <2 x i64> @_mm_setzero_si128()
  store <2 x i64> %9, ptr %5, align 16, !tbaa !11
  call void @llvm.lifetime.start.p0(i64 16, ptr %6) #9
  %10 = load i32, ptr %3, align 4, !tbaa !9
  %11 = call <2 x i64> @_mm_cvtsi32_si128(i32 noundef %10)
  %12 = load <2 x i64>, ptr %5, align 16, !tbaa !11
  %13 = call <2 x i64> @_mm_unpacklo_epi8(<2 x i64> noundef %11, <2 x i64> noundef %12)
  store <2 x i64> %13, ptr %6, align 16, !tbaa !11
  call void @llvm.lifetime.start.p0(i64 16, ptr %7) #9
  %14 = load i32, ptr %4, align 4, !tbaa !9
  %15 = call <2 x i64> @_mm_cvtsi32_si128(i32 noundef %14)
  %16 = load <2 x i64>, ptr %5, align 16, !tbaa !11
  %17 = call <2 x i64> @_mm_unpacklo_epi8(<2 x i64> noundef %15, <2 x i64> noundef %16)
  store <2 x i64> %17, ptr %7, align 16, !tbaa !11
  call void @llvm.lifetime.start.p0(i64 16, ptr %8) #9
  %18 = load <2 x i64>, ptr %7, align 16, !tbaa !11
  %19 = load <2 x i64>, ptr %6, align 16, !tbaa !11
  %20 = call <2 x i64> @_mm_add_epi16(<2 x i64> noundef %18, <2 x i64> noundef %19)
  store <2 x i64> %20, ptr %8, align 16, !tbaa !11
  %21 = load <2 x i64>, ptr %8, align 16, !tbaa !11
  %22 = call <2 x i64> @_mm_srli_epi16(<2 x i64> noundef %21, i32 noundef 1)
  call void @llvm.lifetime.end.p0(i64 16, ptr %8) #9
  call void @llvm.lifetime.end.p0(i64 16, ptr %7) #9
  call void @llvm.lifetime.end.p0(i64 16, ptr %6) #9
  call void @llvm.lifetime.end.p0(i64 16, ptr %5) #9
  ret <2 x i64> %22
}

; Function Attrs: alwaysinline nounwind uwtable
define internal <2 x i64> @_mm_setzero_si128() #4 {
  %1 = alloca <2 x i64>, align 16
  store <2 x i64> zeroinitializer, ptr %1, align 16, !tbaa !11
  %2 = load <2 x i64>, ptr %1, align 16, !tbaa !11
  ret <2 x i64> %2
}

; Function Attrs: inlinehint nounwind uwtable
define internal i32 @Average3_SSE2(i32 noundef %0, i32 noundef %1, i32 noundef %2) #3 {
  %4 = alloca i32, align 4
  %5 = alloca i32, align 4
  %6 = alloca i32, align 4
  %7 = alloca <2 x i64>, align 16
  %8 = alloca <2 x i64>, align 16
  %9 = alloca <2 x i64>, align 16
  %10 = alloca <2 x i64>, align 16
  %11 = alloca <2 x i64>, align 16
  %12 = alloca <2 x i64>, align 16
  store i32 %0, ptr %4, align 4, !tbaa !9
  store i32 %1, ptr %5, align 4, !tbaa !9
  store i32 %2, ptr %6, align 4, !tbaa !9
  call void @llvm.lifetime.start.p0(i64 16, ptr %7) #9
  %13 = call <2 x i64> @_mm_setzero_si128()
  store <2 x i64> %13, ptr %7, align 16, !tbaa !11
  call void @llvm.lifetime.start.p0(i64 16, ptr %8) #9
  %14 = load i32, ptr %4, align 4, !tbaa !9
  %15 = load i32, ptr %6, align 4, !tbaa !9
  %16 = call <2 x i64> @Average2_uint32_16_SSE2(i32 noundef %14, i32 noundef %15)
  store <2 x i64> %16, ptr %8, align 16, !tbaa !11
  call void @llvm.lifetime.start.p0(i64 16, ptr %9) #9
  %17 = load i32, ptr %5, align 4, !tbaa !9
  %18 = call <2 x i64> @_mm_cvtsi32_si128(i32 noundef %17)
  %19 = load <2 x i64>, ptr %7, align 16, !tbaa !11
  %20 = call <2 x i64> @_mm_unpacklo_epi8(<2 x i64> noundef %18, <2 x i64> noundef %19)
  store <2 x i64> %20, ptr %9, align 16, !tbaa !11
  call void @llvm.lifetime.start.p0(i64 16, ptr %10) #9
  %21 = load <2 x i64>, ptr %8, align 16, !tbaa !11
  %22 = load <2 x i64>, ptr %9, align 16, !tbaa !11
  %23 = call <2 x i64> @_mm_add_epi16(<2 x i64> noundef %21, <2 x i64> noundef %22)
  store <2 x i64> %23, ptr %10, align 16, !tbaa !11
  call void @llvm.lifetime.start.p0(i64 16, ptr %11) #9
  %24 = load <2 x i64>, ptr %10, align 16, !tbaa !11
  %25 = call <2 x i64> @_mm_srli_epi16(<2 x i64> noundef %24, i32 noundef 1)
  store <2 x i64> %25, ptr %11, align 16, !tbaa !11
  call void @llvm.lifetime.start.p0(i64 16, ptr %12) #9
  %26 = load <2 x i64>, ptr %11, align 16, !tbaa !11
  %27 = load <2 x i64>, ptr %11, align 16, !tbaa !11
  %28 = call <2 x i64> @_mm_packus_epi16(<2 x i64> noundef %26, <2 x i64> noundef %27)
  store <2 x i64> %28, ptr %12, align 16, !tbaa !11
  %29 = load <2 x i64>, ptr %12, align 16, !tbaa !11
  %30 = call i32 @_mm_cvtsi128_si32(<2 x i64> noundef %29)
  call void @llvm.lifetime.end.p0(i64 16, ptr %12) #9
  call void @llvm.lifetime.end.p0(i64 16, ptr %11) #9
  call void @llvm.lifetime.end.p0(i64 16, ptr %10) #9
  call void @llvm.lifetime.end.p0(i64 16, ptr %9) #9
  call void @llvm.lifetime.end.p0(i64 16, ptr %8) #9
  call void @llvm.lifetime.end.p0(i64 16, ptr %7) #9
  ret i32 %30
}

; Function Attrs: nounwind uwtable
define internal i32 @Predictor5_SSE2(ptr noundef %0, ptr noundef %1) #0 {
  %3 = alloca ptr, align 8
  %4 = alloca ptr, align 8
  %5 = alloca i32, align 4
  store ptr %0, ptr %3, align 8, !tbaa !7
  store ptr %1, ptr %4, align 8, !tbaa !7
  call void @llvm.lifetime.start.p0(i64 4, ptr %5) #9
  %6 = load ptr, ptr %3, align 8, !tbaa !7
  %7 = load i32, ptr %6, align 4, !tbaa !9
  %8 = load ptr, ptr %4, align 8, !tbaa !7
  %9 = getelementptr inbounds i32, ptr %8, i64 0
  %10 = load i32, ptr %9, align 4, !tbaa !9
  %11 = load ptr, ptr %4, align 8, !tbaa !7
  %12 = getelementptr inbounds i32, ptr %11, i64 1
  %13 = load i32, ptr %12, align 4, !tbaa !9
  %14 = call i32 @Average3_SSE2(i32 noundef %7, i32 noundef %10, i32 noundef %13)
  store i32 %14, ptr %5, align 4, !tbaa !9
  %15 = load i32, ptr %5, align 4, !tbaa !9
  call void @llvm.lifetime.end.p0(i64 4, ptr %5) #9
  ret i32 %15
}